target datalayout = "e-m:e-p270:32:32-p271:32:32-p272:64:64-i64:64-i128:128-f80:128-n8:16:32:64-S128"
target triple = "x86_64-pc-linux-gnu"

%struct.H5O_shared_t = type { i32, ptr, i32, %union.anon }
%union.anon = type { %struct.H5O_mesg_loc_t }
%struct.H5O_mesg_loc_t = type { i32, i64 }
%struct.H5O_msg_class_t = type { i32, ptr, i64, i32, ptr, ptr, ptr, ptr, ptr, ptr, ptr, ptr, ptr, ptr, ptr, ptr, ptr, ptr, ptr, ptr }
%struct.H5O_loc_t = type { ptr, i64, i8 }
%struct.H5O_t = type { %struct.H5C_cache_entry_t, i64, i64, i8, i64, i8, i32, i8, i8, i64, i64, i64, i64, i32, i32, i64, i64, ptr, i64, i64, i64, i64, ptr, i8, ptr }
%struct.H5C_cache_entry_t = type { ptr, i64, i64, ptr, i8, ptr, i8, i8, i8, i8, i32, i8, i8, i8, i8, i8, i32, ptr, i32, i32, i32, i32, i32, i8, i8, ptr, ptr, ptr, ptr, ptr, ptr, i8, i32, i8, i64, ptr, i64, i64, i32, i8, i32, i32, i8, ptr, ptr, ptr }
%struct.H5O_chunk_t = type { i64, i64, i64, ptr, ptr }

@.str = private unnamed_addr constant [103 x i8] c"generated/home/dtcxzyw/WorkSpace/Projects/compilers/llvm-opt-benchmark/bench/hdf5/hdf5/src/H5Oshared.c\00", align 1
@H5E_OHDR_g = external global i64, align 8
@H5E_LINKCOUNT_g = external global i64, align 8
@.str.4 = private unnamed_addr constant [42 x i8] c"unable to adjust shared object link count\00", align 1
@__func__.H5O__shared_link_adj = private unnamed_addr constant [21 x i8] c"H5O__shared_link_adj\00", align 1
@H5E_CANTDEC_g = external global i64, align 8
@.str.32 = private unnamed_addr constant [41 x i8] c"unable to delete message from SOHM table\00", align 1
@H5E_CANTINC_g = external global i64, align 8
@.str.33 = private unnamed_addr constant [30 x i8] c"error trying to share message\00", align 1

; Function Attrs: nounwind uwtable
define internal i32 @H5O__shared_link_adj(ptr noundef %0, ptr noundef %1, ptr noundef %2, ptr noundef %3, i32 noundef %4) #0 {
  %6 = alloca ptr, align 8
  %7 = alloca ptr, align 8
  %8 = alloca ptr, align 8
  %9 = alloca ptr, align 8
  %10 = alloca i32, align 4
  %11 = alloca i32, align 4
  %12 = alloca i8, align 1
  %13 = alloca %struct.H5O_loc_t, align 8
  %14 = alloca i8, align 1
  store ptr %0, ptr %6, align 8
  store ptr %1, ptr %7, align 8
  store ptr %2, ptr %8, align 8
  store ptr %3, ptr %9, align 8
  store i32 %4, ptr %10, align 4
  store i32 0, ptr %11, align 4
  store i8 0, ptr %12, align 1
  %15 = load ptr, ptr %9, align 8
  %16 = getelementptr inbounds %struct.H5O_shared_t, ptr %15, i32 0, i32 0
  %17 = load i32, ptr %16, align 8
  %18 = icmp eq i32 %17, 2
  br i1 %18, label %19, label %83

19:                                               ; preds = %5
  %20 = load ptr, ptr %6, align 8
  %21 = getelementptr inbounds %struct.H5O_loc_t, ptr %13, i32 0, i32 0
  store ptr %20, ptr %21, align 8
  %22 = load ptr, ptr %9, align 8
  %23 = getelementptr inbounds %struct.H5O_shared_t, ptr %22, i32 0, i32 3
  %24 = getelementptr inbounds %struct.H5O_mesg_loc_t, ptr %23, i32 0, i32 1
  %25 = load i64, ptr %24, align 8
  %26 = getelementptr inbounds %struct.H5O_loc_t, ptr %13, i32 0, i32 1
  store i64 %25, ptr %26, align 8
  %27 = getelementptr inbounds %struct.H5O_loc_t, ptr %13, i32 0, i32 2
  store i8 0, ptr %27, align 8
  %28 = load ptr, ptr %7, align 8
  %29 = icmp ne ptr %28, null
  br i1 %29, label %30, label %62

30:                                               ; preds = %19
  %31 = getelementptr inbounds %struct.H5O_loc_t, ptr %13, i32 0, i32 1
  %32 = load i64, ptr %31, align 8
  %33 = load ptr, ptr %7, align 8
  %34 = getelementptr inbounds %struct.H5O_t, ptr %33, i32 0, i32 22
  %35 = load ptr, ptr %34, align 8
  %36 = getelementptr inbounds %struct.H5O_chunk_t, ptr %35, i64 0
  %37 = getelementptr inbounds %struct.H5O_chunk_t, ptr %36, i32 0, i32 0
  %38 = load i64, ptr %37, align 8
  %39 = icmp eq i64 %32, %38
  br i1 %39, label %40, label %62

40:                                               ; preds = %30
  store i8 0, ptr %14, align 1
  %41 = load ptr, ptr %6, align 8
  %42 = load i32, ptr %10, align 4
  %43 = load ptr, ptr %7, align 8
  %44 = call i32 @H5O__link_oh(ptr noundef %41, i32 noundef %42, ptr noundef %43, ptr noundef %14)
  %45 = icmp slt i32 %44, 0
  br i1 %45, label %46, label %61

46:                                               ; preds = %40
  br label %47

47:                                               ; preds = %46
  br label %48

48:                                               ; preds = %47
  br label %49

49:                                               ; preds = %48
  %50 = load i64, ptr @H5E_OHDR_g, align 8
  %51 = load i64, ptr @H5E_LINKCOUNT_g, align 8
  %52 = call i32 (ptr, ptr, i32, i64, i64, ptr, ...) @H5E_printf_stack(ptr noundef @.str, ptr noundef @__func__.H5O__shared_link_adj, i32 noundef 250, i64 noundef %50, i64 noundef %51, ptr noundef @.str.4)
  br label %53

53:                                               ; preds = %49
  store i8 1, ptr %12, align 1
  %54 = load i8, ptr %12, align 1
  %55 = trunc i8 %54 to i1
  %56 = zext i1 %55 to i8
  store i8 %56, ptr %12, align 1
  br label %57

57:                                               ; preds = %53
  br label %58

58:                                               ; preds = %57
  store i32 -1, ptr %11, align 4
  br label %139

59:                                               ; No predecessors!
  br label %60

60:                                               ; preds = %59
  br label %61

61:                                               ; preds = %60, %40
  br label %82

62:                                               ; preds = %30, %19
  %63 = load i32, ptr %10, align 4
  %64 = call i32 @H5O_link(ptr noundef %13, i32 noundef %63)
  %65 = icmp slt i32 %64, 0
  br i1 %65, label %66, label %81

66:                                               ; preds = %62
  br label %67

67:                                               ; preds = %66
  br label %68

68:                                               ; preds = %67
  br label %69

69:                                               ; preds = %68
  %70 = load i64, ptr @H5E_OHDR_g, align 8
  %71 = load i64, ptr @H5E_LINKCOUNT_g, align 8
  %72 = call i32 (ptr, ptr, i32, i64, i64, ptr, ...) @H5E_printf_stack(ptr noundef @.str, ptr noundef @__func__.H5O__shared_link_adj, i32 noundef 257, i64 noundef %70, i64 noundef %71, ptr noundef @.str.4)
  br label %73

73:                                               ; preds = %69
  store i8 1, ptr %12, align 1
  %74 = load i8, ptr %12, align 1
  %75 = trunc i8 %74 to i1
  %76 = zext i1 %75 to i8
  store i8 %76, ptr %12, align 1
  br label %77

77:                                               ; preds = %73
  br label %78

78:                                               ; preds = %77
  store i32 -1, ptr %11, align 4
  br label %139

79:                                               ; No predecessors!
  br label %80

80:                                               ; preds = %79
  br label %81

81:                                               ; preds = %80, %62
  br label %82

82:                                               ; preds = %81, %61
  br label %138

83:                                               ; preds = %5
  %84 = load i32, ptr %10, align 4
  %85 = icmp slt i32 %84, 0
  br i1 %85, label %86, label %108

86:                                               ; preds = %83
  %87 = load ptr, ptr %6, align 8
  %88 = load ptr, ptr %7, align 8
  %89 = load ptr, ptr %9, align 8
  %90 = call i32 @H5SM_delete(ptr noundef %87, ptr noundef %88, ptr noundef %89)
  %91 = icmp slt i32 %90, 0
  br i1 %91, label %92, label %107

92:                                               ; preds = %86
  br label %93

93:                                               ; preds = %92
  br label %94

94:                                               ; preds = %93
  br label %95

95:                                               ; preds = %94
  %96 = load i64, ptr @H5E_OHDR_g, align 8
  %97 = load i64, ptr @H5E_CANTDEC_g, align 8
  %98 = call i32 (ptr, ptr, i32, i64, i64, ptr, ...) @H5E_printf_stack(ptr noundef @.str, ptr noundef @__func__.H5O__shared_link_adj, i32 noundef 265, i64 noundef %96, i64 noundef %97, ptr noundef @.str.32)
  br label %99

99:                                               ; preds = %95
  store i8 1, ptr %12, align 1
  %100 = load i8, ptr %12, align 1
  %101 = trunc i8 %100 to i1
  %102 = zext i1 %101 to i8
  store i8 %102, ptr %12, align 1
  br label %103

103:                                              ; preds = %99
  br label %104

104:                                              ; preds = %103
  store i32 -1, ptr %11, align 4
  br label %139

105:                                              ; No predecessors!
  br label %106

106:                                              ; preds = %105
  br label %107

107:                                              ; preds = %106, %86
  br label %137

108:                                              ; preds = %83
  %109 = load i32, ptr %10, align 4
  %110 = icmp sgt i32 %109, 0
  br i1 %110, label %111, label %136

111:                                              ; preds = %108
  %112 = load ptr, ptr %6, align 8
  %113 = load ptr, ptr %7, align 8
  %114 = load ptr, ptr %8, align 8
  %115 = getelementptr inbounds %struct.H5O_msg_class_t, ptr %114, i32 0, i32 0
  %116 = load i32, ptr %115, align 8
  %117 = load ptr, ptr %9, align 8
  %118 = call i32 @H5SM_try_share(ptr noundef %112, ptr noundef %113, i32 noundef 0, i32 noundef %116, ptr noundef %117, ptr noundef null)
  %119 = icmp slt i32 %118, 0
  br i1 %119, label %120, label %135

120:                                              ; preds = %111
  br label %121

121:                                              ; preds = %120
  br label %122

122:                                              ; preds = %121
  br label %123

123:                                              ; preds = %122
  %124 = load i64, ptr @H5E_OHDR_g, align 8
  %125 = load i64, ptr @H5E_CANTINC_g, align 8
  %126 = call i32 (ptr, ptr, i32, i64, i64, ptr, ...) @H5E_printf_stack(ptr noundef @.str, ptr noundef @__func__.H5O__shared_link_adj, i32 noundef 270, i64 noundef %124, i64 noundef %125, ptr noundef @.str.33)
  br label %127

127:                                              ; preds = %123
  store i8 1, ptr %12, align 1
  %128 = load i8, ptr %12, align 1
  %129 = trunc i8 %128 to i1
  %130 = zext i1 %129 to i8
  store i8 %130, ptr %12, align 1
  br label %131

131:                                              ; preds = %127
  br label %132

132:                                              ; preds = %131
  store i32 -1, ptr %11, align 4
  br label %139

133:                                              ; No predecessors!
  br label %134

134:                                              ; preds = %133
  br label %135

135:                                              ; preds = %134, %111
  br label %136

136:                                              ; preds = %135, %108
  br label %137

137:                                              ; preds = %136, %107
  br label %138

138:                                              ; preds = %137, %82
  br label %139

139:                                              ; preds = %138, %132, %104, %78, %58
  %140 = load i32, ptr %11, align 4
  ret i32 %140
}