; Function Attrs: nounwind uwtable
define internal fastcc range(i32 -1, 1) i32 @H5O__shared_link_adj(ptr noundef %0, ptr noundef %1, ptr nocapture noundef readonly %2, ptr noundef %3, i32 noundef %4) unnamed_addr #0 {
  %6 = alloca %struct.H5O_loc_t, align 8
  %7 = alloca i8, align 1
  %8 = load i32, ptr %3, align 8
  %9 = icmp eq i32 %8, 2
  br i1 %9, label %10, label %34

10:                                               ; preds = %5
  store ptr %0, ptr %6, align 8
  %11 = getelementptr inbounds i8, ptr %3, i64 32
  %12 = load i64, ptr %11, align 8
  %13 = getelementptr inbounds i8, ptr %6, i64 8
  store i64 %12, ptr %13, align 8
  %14 = getelementptr inbounds i8, ptr %6, i64 16
  store i8 0, ptr %14, align 8
  %.not24 = icmp eq ptr %1, null
  br i1 %.not24, label %27, label %15

15:                                               ; preds = %10
  %16 = getelementptr inbounds i8, ptr %1, i64 392
  %17 = load ptr, ptr %16, align 8
  %18 = load i64, ptr %17, align 8
  %19 = icmp eq i64 %12, %18
  br i1 %19, label %20, label %27

20:                                               ; preds = %15
  store i8 0, ptr %7, align 1
  %21 = call i32 @H5O__link_oh(ptr noundef %0, i32 noundef %4, ptr noundef nonnull %1, ptr noundef nonnull %7) #7
  %22 = icmp slt i32 %21, 0
  br i1 %22, label %23, label %52

23:                                               ; preds = %20
  %24 = load i64, ptr @H5E_OHDR_g, align 8
  %25 = load i64, ptr @H5E_LINKCOUNT_g, align 8
  %26 = call i32 (ptr, ptr, i32, i64, i64, ptr, ...) @H5E_printf_stack(ptr noundef nonnull @.str, ptr noundef nonnull @__func__.H5O__shared_link_adj, i32 noundef 250, i64 noundef %24, i64 noundef %25, ptr noundef nonnull @.str.4) #7
  br label %52

27:                                               ; preds = %15, %10
  %28 = call i32 @H5O_link(ptr noundef nonnull %6, i32 noundef %4) #7
  %29 = icmp slt i32 %28, 0
  br i1 %29, label %30, label %52

30:                                               ; preds = %27
  %31 = load i64, ptr @H5E_OHDR_g, align 8
  %32 = load i64, ptr @H5E_LINKCOUNT_g, align 8
  %33 = call i32 (ptr, ptr, i32, i64, i64, ptr, ...) @H5E_printf_stack(ptr noundef nonnull @.str, ptr noundef nonnull @__func__.H5O__shared_link_adj, i32 noundef 257, i64 noundef %31, i64 noundef %32, ptr noundef nonnull @.str.4) #7
  br label %52

34:                                               ; preds = %5
  %35 = icmp slt i32 %4, 0
  br i1 %35, label %36, label %43

36:                                               ; preds = %34
  %37 = tail call i32 @H5SM_delete(ptr noundef %0, ptr noundef %1, ptr noundef nonnull %3) #7
  %38 = icmp slt i32 %37, 0
  br i1 %38, label %39, label %52

39:                                               ; preds = %36
  %40 = load i64, ptr @H5E_OHDR_g, align 8
  %41 = load i64, ptr @H5E_CANTDEC_g, align 8
  %42 = tail call i32 (ptr, ptr, i32, i64, i64, ptr, ...) @H5E_printf_stack(ptr noundef nonnull @.str, ptr noundef nonnull @__func__.H5O__shared_link_adj, i32 noundef 265, i64 noundef %40, i64 noundef %41, ptr noundef nonnull @.str.32) #7
  br label %52

43:                                               ; preds = %34
  %.not = icmp eq i32 %4, 0
  br i1 %.not, label %52, label %44

44:                                               ; preds = %43
  %45 = load i32, ptr %2, align 8
  %46 = tail call i32 @H5SM_try_share(ptr noundef %0, ptr noundef %1, i32 noundef 0, i32 noundef %45, ptr noundef nonnull %3, ptr noundef null) #7
  %47 = icmp slt i32 %46, 0
  br i1 %47, label %48, label %52

48:                                               ; preds = %44
  %49 = load i64, ptr @H5E_OHDR_g, align 8
  %50 = load i64, ptr @H5E_CANTINC_g, align 8
  %51 = tail call i32 (ptr, ptr, i32, i64, i64, ptr, ...) @H5E_printf_stack(ptr noundef nonnull @.str, ptr noundef nonnull @__func__.H5O__shared_link_adj, i32 noundef 270, i64 noundef %49, i64 noundef %50, ptr noundef nonnull @.str.33) #7
  br label %52

52:                                               ; preds = %27, %20, %43, %44, %36, %48, %39, %30, %23
  %.0 = phi i32 [ -1, %23 ], [ 0, %20 ], [ -1, %30 ], [ 0, %27 ], [ -1, %39 ], [ 0, %36 ], [ -1, %48 ], [ 0, %44 ], [ 0, %43 ]
  ret i32 %.0
}